; ModuleID = '35/1322.c'
source_filename = "35/1322.c"
target datalayout = "e-m:e-p270:32:32-p271:32:32-p272:64:64-i64:64-f80:128-n8:16:32:64-S128"
target triple = "x86_64-pc-linux-gnu"

@.str = private unnamed_addr constant [6 x i8] c"%d,%d\00", align 1
@.str.1 = private unnamed_addr constant [4 x i8] c"%d \00", align 1
@.str.2 = private unnamed_addr constant [3 x i8] c"%d\00", align 1
@.str.3 = private unnamed_addr constant [3 x i8] c"No\00", align 1
@.str.4 = private unnamed_addr constant [6 x i8] c"%d+%d\00", align 1

; Function Attrs: noinline nounwind uwtable
define dso_local i32 @main() #0 {
  %1 = alloca i32, align 4
  %2 = alloca [8 x [8 x i32]], align 16
  %3 = alloca i32, align 4
  %4 = alloca i32, align 4
  %5 = alloca i32, align 4
  %6 = alloca i32, align 4
  %7 = alloca i32, align 4
  %8 = alloca i32, align 4
  %9 = alloca i32, align 4
  %10 = alloca i32, align 4
  %11 = alloca i32, align 4
  %12 = alloca i32, align 4
  %13 = alloca i32, align 4
  %14 = alloca i32, align 4
  %15 = alloca i32, align 4
  store i32 0, i32* %1, align 4
  store i32 0, i32* %7, align 4
  store i32 0, i32* %8, align 4
  store i32 0, i32* %11, align 4
  store i32 0, i32* %12, align 4
  store i32 0, i32* %13, align 4
  %16 = call i32 (i8*, ...) @__isoc99_scanf(i8* getelementptr inbounds ([6 x i8], [6 x i8]* @.str, i64 0, i64 0), i32* %3, i32* %4)
  store i32 0, i32* %5, align 4
  br label %17

17:                                               ; preds = %48, %0
  %18 = load i32, i32* %5, align 4
  %19 = load i32, i32* %3, align 4
  %20 = sub nsw i32 %19, 1
  %21 = icmp sle i32 %18, %20
  br i1 %21, label %22, label %51

22:                                               ; preds = %17
  store i32 0, i32* %6, align 4
  br label %23

23:                                               ; preds = %36, %22
  %24 = load i32, i32* %6, align 4
  %25 = load i32, i32* %4, align 4
  %26 = sub nsw i32 %25, 2
  %27 = icmp sle i32 %24, %26
  br i1 %27, label %28, label %39

28:                                               ; preds = %23
  %29 = load i32, i32* %5, align 4
  %30 = sext i32 %29 to i64
  %31 = getelementptr inbounds [8 x [8 x i32]], [8 x [8 x i32]]* %2, i64 0, i64 %30
  %32 = load i32, i32* %6, align 4
  %33 = sext i32 %32 to i64
  %34 = getelementptr inbounds [8 x i32], [8 x i32]* %31, i64 0, i64 %33
  %35 = call i32 (i8*, ...) @__isoc99_scanf(i8* getelementptr inbounds ([4 x i8], [4 x i8]* @.str.1, i64 0, i64 0), i32* %34)
  br label %36

36:                                               ; preds = %28
  %37 = load i32, i32* %6, align 4
  %38 = add nsw i32 %37, 1
  store i32 %38, i32* %6, align 4
  br label %23

39:                                               ; preds = %23
  %40 = load i32, i32* %5, align 4
  %41 = sext i32 %40 to i64
  %42 = getelementptr inbounds [8 x [8 x i32]], [8 x [8 x i32]]* %2, i64 0, i64 %41
  %43 = load i32, i32* %4, align 4
  %44 = sub nsw i32 %43, 1
  %45 = sext i32 %44 to i64
  %46 = getelementptr inbounds [8 x i32], [8 x i32]* %42, i64 0, i64 %45
  %47 = call i32 (i8*, ...) @__isoc99_scanf(i8* getelementptr inbounds ([3 x i8], [3 x i8]* @.str.2, i64 0, i64 0), i32* %46)
  br label %48

48:                                               ; preds = %39
  %49 = load i32, i32* %5, align 4
  %50 = add nsw i32 %49, 1
  store i32 %50, i32* %5, align 4
  br label %17

51:                                               ; preds = %17
  store i32 0, i32* %7, align 4
  br label %52

52:                                               ; preds = %133, %51
  %53 = load i32, i32* %7, align 4
  %54 = load i32, i32* %3, align 4
  %55 = sub nsw i32 %54, 1
  %56 = icmp sle i32 %53, %55
  br i1 %56, label %57, label %136

57:                                               ; preds = %52
  %58 = load i32, i32* %7, align 4
  %59 = sext i32 %58 to i64
  %60 = getelementptr inbounds [8 x [8 x i32]], [8 x [8 x i32]]* %2, i64 0, i64 %59
  %61 = getelementptr inbounds [8 x i32], [8 x i32]* %60, i64 0, i64 0
  %62 = load i32, i32* %61, align 16
  store i32 %62, i32* %10, align 4
  store i32 0, i32* %8, align 4
  br label %63

63:                                               ; preds = %91, %57
  %64 = load i32, i32* %8, align 4
  %65 = load i32, i32* %4, align 4
  %66 = sub nsw i32 %65, 2
  %67 = icmp sle i32 %64, %66
  br i1 %67, label %68, label %94

68:                                               ; preds = %63
  %69 = load i32, i32* %10, align 4
  %70 = load i32, i32* %7, align 4
  %71 = sext i32 %70 to i64
  %72 = getelementptr inbounds [8 x [8 x i32]], [8 x [8 x i32]]* %2, i64 0, i64 %71
  %73 = load i32, i32* %8, align 4
  %74 = add nsw i32 %73, 1
  %75 = sext i32 %74 to i64
  %76 = getelementptr inbounds [8 x i32], [8 x i32]* %72, i64 0, i64 %75
  %77 = load i32, i32* %76, align 4
  %78 = icmp sle i32 %69, %77
  br i1 %78, label %79, label %90

79:                                               ; preds = %68
  %80 = load i32, i32* %7, align 4
  %81 = sext i32 %80 to i64
  %82 = getelementptr inbounds [8 x [8 x i32]], [8 x [8 x i32]]* %2, i64 0, i64 %81
  %83 = load i32, i32* %8, align 4
  %84 = add nsw i32 %83, 1
  %85 = sext i32 %84 to i64
  %86 = getelementptr inbounds [8 x i32], [8 x i32]* %82, i64 0, i64 %85
  %87 = load i32, i32* %86, align 4
  store i32 %87, i32* %10, align 4
  %88 = load i32, i32* %8, align 4
  %89 = add nsw i32 %88, 1
  store i32 %89, i32* %11, align 4
  br label %90

90:                                               ; preds = %79, %68
  br label %91

91:                                               ; preds = %90
  %92 = load i32, i32* %8, align 4
  %93 = add nsw i32 %92, 1
  store i32 %93, i32* %8, align 4
  br label %63

94:                                               ; preds = %63
  store i32 0, i32* %9, align 4
  br label %95

95:                                               ; preds = %120, %94
  %96 = load i32, i32* %9, align 4
  %97 = load i32, i32* %3, align 4
  %98 = sub nsw i32 %97, 1
  %99 = icmp sle i32 %96, %98
  br i1 %99, label %100, label %123

100:                                              ; preds = %95
  %101 = load i32, i32* %7, align 4
  %102 = sext i32 %101 to i64
  %103 = getelementptr inbounds [8 x [8 x i32]], [8 x [8 x i32]]* %2, i64 0, i64 %102
  %104 = load i32, i32* %11, align 4
  %105 = sext i32 %104 to i64
  %106 = getelementptr inbounds [8 x i32], [8 x i32]* %103, i64 0, i64 %105
  %107 = load i32, i32* %106, align 4
  %108 = load i32, i32* %9, align 4
  %109 = sext i32 %108 to i64
  %110 = getelementptr inbounds [8 x [8 x i32]], [8 x [8 x i32]]* %2, i64 0, i64 %109
  %111 = load i32, i32* %11, align 4
  %112 = sext i32 %111 to i64
  %113 = getelementptr inbounds [8 x i32], [8 x i32]* %110, i64 0, i64 %112
  %114 = load i32, i32* %113, align 4
  %115 = icmp sle i32 %107, %114
  br i1 %115, label %116, label %119

116:                                              ; preds = %100
  %117 = load i32, i32* %12, align 4
  %118 = add nsw i32 %117, 1
  store i32 %118, i32* %12, align 4
  br label %119

119:                                              ; preds = %116, %100
  br label %120

120:                                              ; preds = %119
  %121 = load i32, i32* %9, align 4
  %122 = add nsw i32 %121, 1
  store i32 %122, i32* %9, align 4
  br label %95

123:                                              ; preds = %95
  %124 = load i32, i32* %12, align 4
  %125 = load i32, i32* %3, align 4
  %126 = icmp eq i32 %124, %125
  br i1 %126, label %127, label %132

127:                                              ; preds = %123
  %128 = load i32, i32* %13, align 4
  %129 = add nsw i32 %128, 1
  store i32 %129, i32* %13, align 4
  %130 = load i32, i32* %7, align 4
  store i32 %130, i32* %14, align 4
  %131 = load i32, i32* %11, align 4
  store i32 %131, i32* %15, align 4
  br label %132

132:                                              ; preds = %127, %123
  store i32 0, i32* %11, align 4
  store i32 0, i32* %12, align 4
  br label %133

133:                                              ; preds = %132
  %134 = load i32, i32* %7, align 4
  %135 = add nsw i32 %134, 1
  store i32 %135, i32* %7, align 4
  br label %52

136:                                              ; preds = %52
  %137 = load i32, i32* %13, align 4
  %138 = icmp eq i32 %137, 0
  br i1 %138, label %139, label %141

139:                                              ; preds = %136
  %140 = call i32 (i8*, ...) @printf(i8* getelementptr inbounds ([3 x i8], [3 x i8]* @.str.3, i64 0, i64 0))
  br label %145

141:                                              ; preds = %136
  %142 = load i32, i32* %14, align 4
  %143 = load i32, i32* %15, align 4
  %144 = call i32 (i8*, ...) @printf(i8* getelementptr inbounds ([6 x i8], [6 x i8]* @.str.4, i64 0, i64 0), i32 %142, i32 %143)
  br label %145

145:                                              ; preds = %141, %139
  ret i32 0
}

declare dso_local i32 @__isoc99_scanf(i8*, ...) #1

declare dso_local i32 @printf(i8*, ...) #1


!llvm.module.flags = !{!0}
!llvm.ident = !{!1}

!0 = !{i32 1, !"wchar_size", i32 4}
!1 = !{!"clang version 10.0.0-4ubuntu1 "}
